(dp1
Vb167594301:167594301
p2
I28
sVg2761215521:2783433208
p3
I1
sVg2624653357:1264206064
p4
I4
sVb2147232436:2147232436
p5
I17
sVb3602121394:3602121394
p6
I21
sVg2761215521:2147232436
p7
I65
sVg2624653357:3933060201
p8
I2
sVg1070381172:2730018607
p9
I2
sVg2624653357:2147232436
p10
I49
sVb3352140680:3352140680
p11
I7
sVg2624653357:3782847464
p12
I89
sVg2761215521:3399154484
p13
I17
sVg2761215521:142035919
p14
I61
sVb3687160802:3687160802
p15
I9
sVb3506458904:3506458904
p16
I5
sVg2799627641:3352140680
p17
I7
sVg2624653357:370045755
p18
I9
sVg2761215521:3687160802
p19
I28
sVg2624653357:1198195121
p20
I56
sVg2624653357:167594301
p21
I45
sVg2624653357:3399154484
p22
I57
sVg2624653357:142035919
p23
I89
sVg2761215521:370045755
p24
I32
sVg2761215521:3172603043
p25
I29
sVg2624653357:1779577478
p26
I154
sVb865353350:865353350
p27
I21
sVg2761215521:3602121394
p28
I51
sVg2761215521:167594301
p29
I116
sVg1070381172:3352140680
p30
I2
sVg2624653357:3172603043
p31
I17
sVg2799627641:2730018607
p32
I21
sVg2761215521:1697635349
p33
I6
sVg2761215521:1779577478
p34
I7
sVg1070381172:1648215799
p35
I1
s.